target datalayout = "e-m:e-p270:32:32-p271:32:32-p272:64:64-i64:64-i128:128-f80:128-n8:16:32:64-S128"
target triple = "x86_64-pc-linux-gnu"

%struct.cbs_st = type { ptr, i64 }

; Function Attrs: nounwind uwtable
define hidden i32 @CBS_contains_zero_byte(ptr noundef %0) #0 {
  %2 = alloca ptr, align 8
  store ptr %0, ptr %2, align 8, !tbaa !6
  %3 = load ptr, ptr %2, align 8, !tbaa !6
  %4 = getelementptr inbounds nuw %struct.cbs_st, ptr %3, i32 0, i32 0
  %5 = load ptr, ptr %4, align 8, !tbaa !15
  %6 = load ptr, ptr %2, align 8, !tbaa !6
  %7 = getelementptr inbounds nuw %struct.cbs_st, ptr %6, i32 0, i32 1
  %8 = load i64, ptr %7, align 8, !tbaa !17
  %9 = call ptr @memchr(ptr noundef %5, i32 noundef 0, i64 noundef %8) #7
  %10 = icmp ne ptr %9, null
  %11 = zext i1 %10 to i32
  ret i32 %11
}