; Function Attrs: mustprogress nofree nounwind willreturn memory(read, inaccessiblemem: none) uwtable
define hidden range(i32 0, 2) i32 @CBS_contains_zero_byte(ptr noundef readonly captures(none) %0) local_unnamed_addr #7 {
  %2 = load ptr, ptr %0, align 8, !tbaa !6
  %3 = getelementptr inbounds nuw i8, ptr %0, i64 8
  %4 = load i64, ptr %3, align 8, !tbaa !13
  %5 = tail call ptr @memchr(ptr noundef %2, i32 noundef 0, i64 noundef %4) #16
  %6 = icmp ne ptr %5, null
  %7 = zext i1 %6 to i32
  ret i32 %7
}